target datalayout = "e-m:e-p270:32:32-p271:32:32-p272:64:64-i64:64-i128:128-f80:128-n8:16:32:64-S128"
target triple = "x86_64-unknown-linux-gnu"

%class.TestDataModule = type { ptr, ptr, ptr, ptr }

; Function Attrs: mustprogress nounwind uwtable
define noundef signext i8 @_ZNK16RBTestDataModule7getInfoERPK7DataMapR10UErrorCode(ptr noundef nonnull align 8 dereferenceable(76) %this, ptr noundef nonnull align 8 dereferenceable(8) %info, ptr noundef nonnull align 4 dereferenceable(4) %0) unnamed_addr #0 align 2 {
entry:
  %retval = alloca i8, align 1
  %this.addr = alloca ptr, align 8
  %info.addr = alloca ptr, align 8
  %.addr = alloca ptr, align 8
  store ptr %this, ptr %this.addr, align 8
  store ptr %info, ptr %info.addr, align 8
  store ptr %0, ptr %.addr, align 8
  %this1 = load ptr, ptr %this.addr, align 8
  %fInfo = getelementptr inbounds %class.TestDataModule, ptr %this1, i32 0, i32 2
  %1 = load ptr, ptr %fInfo, align 8
  %2 = load ptr, ptr %info.addr, align 8
  store ptr %1, ptr %2, align 8
  %fInfo2 = getelementptr inbounds %class.TestDataModule, ptr %this1, i32 0, i32 2
  %3 = load ptr, ptr %fInfo2, align 8
  %tobool = icmp ne ptr %3, null
  br i1 %tobool, label %if.then, label %if.else

if.then:                                          ; preds = %entry
  store i8 1, ptr %retval, align 1
  br label %return

if.else:                                          ; preds = %entry
  store i8 0, ptr %retval, align 1
  br label %return

return:                                           ; preds = %if.else, %if.then
  %4 = load i8, ptr %retval, align 1
  ret i8 %4
}