; Function Attrs: mustprogress nofree norecurse nosync nounwind willreturn memory(argmem: readwrite) uwtable
define noundef signext i8 @_ZNK16RBTestDataModule7getInfoERPK7DataMapR10UErrorCode(ptr nocapture noundef nonnull readonly align 8 dereferenceable(76) %this, ptr nocapture noundef nonnull writeonly align 8 dereferenceable(8) %info, ptr nocapture nonnull readnone align 4 %0) unnamed_addr #16 align 2 {
entry:
  %fInfo = getelementptr inbounds i8, ptr %this, i64 16
  %1 = load ptr, ptr %fInfo, align 8
  store ptr %1, ptr %info, align 8
  %tobool.not = icmp ne ptr %1, null
  %. = zext i1 %tobool.not to i8
  ret i8 %.
}